target datalayout = "e-m:e-p270:32:32-p271:32:32-p272:64:64-i64:64-i128:128-f80:128-n8:16:32:64-S128"
target triple = "x86_64-pc-linux-gnu"

%struct.H5Z_filter_info_t = type { i32, i32, [12 x i8], ptr, i64, [4 x i32], ptr }
%struct.H5Z_class2_t = type { i32, i32, i32, i32, ptr, ptr, ptr, ptr }

@H5_libterm_g = external global i8, align 1
@H5P_init_g = external global i8, align 1
@.str.40 = private unnamed_addr constant [23 x i8] c"Unknown library filter\00", align 1

; Function Attrs: nounwind uwtable
define i32 @H5P__get_filter(ptr noundef %0, ptr noundef %1, ptr noundef %2, ptr noundef %3, i64 noundef %4, ptr noundef %5, ptr noundef %6) #0 {
  %8 = alloca ptr, align 8
  %9 = alloca ptr, align 8
  %10 = alloca ptr, align 8
  %11 = alloca ptr, align 8
  %12 = alloca i64, align 8
  %13 = alloca ptr, align 8
  %14 = alloca ptr, align 8
  %15 = alloca i64, align 8
  %16 = alloca ptr, align 8
  %17 = alloca ptr, align 8
  store ptr %0, ptr %8, align 8, !tbaa !33
  store ptr %1, ptr %9, align 8, !tbaa !18
  store ptr %2, ptr %10, align 8, !tbaa !28
  store ptr %3, ptr %11, align 8, !tbaa !18
  store i64 %4, ptr %12, align 8, !tbaa !14
  store ptr %5, ptr %13, align 8, !tbaa !30
  store ptr %6, ptr %14, align 8, !tbaa !18
  %18 = load i8, ptr @H5P_init_g, align 1, !tbaa !10, !range !12, !noundef !13
  %19 = trunc i8 %18 to i1
  br i1 %19, label %24, label %20

20:                                               ; preds = %7
  %21 = load i8, ptr @H5_libterm_g, align 1, !tbaa !10, !range !12, !noundef !13
  %22 = trunc i8 %21 to i1
  %23 = xor i1 %22, true
  br label %24

24:                                               ; preds = %20, %7
  %25 = phi i1 [ true, %7 ], [ %23, %20 ]
  %26 = xor i1 %25, true
  %27 = xor i1 %26, true
  %28 = zext i1 %27 to i32
  %29 = sext i32 %28 to i64
  %30 = call i64 @llvm.expect.i64(i64 %29, i64 1)
  %31 = icmp ne i64 %30, 0
  br i1 %31, label %32, label %143

32:                                               ; preds = %24
  %33 = load ptr, ptr %9, align 8, !tbaa !18
  %34 = icmp ne ptr %33, null
  br i1 %34, label %35, label %40

35:                                               ; preds = %32
  %36 = load ptr, ptr %8, align 8, !tbaa !33
  %37 = getelementptr inbounds nuw %struct.H5Z_filter_info_t, ptr %36, i32 0, i32 1
  %38 = load i32, ptr %37, align 4, !tbaa !36
  %39 = load ptr, ptr %9, align 8, !tbaa !18
  store i32 %38, ptr %39, align 4, !tbaa !8
  br label %40

40:                                               ; preds = %35, %32
  %41 = load ptr, ptr %11, align 8, !tbaa !18
  %42 = icmp ne ptr %41, null
  br i1 %42, label %43, label %71

43:                                               ; preds = %40
  call void @llvm.lifetime.start.p0(i64 8, ptr %15) #10
  store i64 0, ptr %15, align 8, !tbaa !14
  br label %44

44:                                               ; preds = %67, %43
  %45 = load i64, ptr %15, align 8, !tbaa !14
  %46 = load ptr, ptr %8, align 8, !tbaa !33
  %47 = getelementptr inbounds nuw %struct.H5Z_filter_info_t, ptr %46, i32 0, i32 4
  %48 = load i64, ptr %47, align 8, !tbaa !37
  %49 = icmp ult i64 %45, %48
  br i1 %49, label %50, label %55

50:                                               ; preds = %44
  %51 = load i64, ptr %15, align 8, !tbaa !14
  %52 = load ptr, ptr %10, align 8, !tbaa !28
  %53 = load i64, ptr %52, align 8, !tbaa !14
  %54 = icmp ult i64 %51, %53
  br label %55

55:                                               ; preds = %50, %44
  %56 = phi i1 [ false, %44 ], [ %54, %50 ]
  br i1 %56, label %57, label %70

57:                                               ; preds = %55
  %58 = load ptr, ptr %8, align 8, !tbaa !33
  %59 = getelementptr inbounds nuw %struct.H5Z_filter_info_t, ptr %58, i32 0, i32 6
  %60 = load ptr, ptr %59, align 8, !tbaa !38
  %61 = load i64, ptr %15, align 8, !tbaa !14
  %62 = getelementptr inbounds nuw i32, ptr %60, i64 %61
  %63 = load i32, ptr %62, align 4, !tbaa !8
  %64 = load ptr, ptr %11, align 8, !tbaa !18
  %65 = load i64, ptr %15, align 8, !tbaa !14
  %66 = getelementptr inbounds nuw i32, ptr %64, i64 %65
  store i32 %63, ptr %66, align 4, !tbaa !8
  br label %67

67:                                               ; preds = %57
  %68 = load i64, ptr %15, align 8, !tbaa !14
  %69 = add i64 %68, 1
  store i64 %69, ptr %15, align 8, !tbaa !14
  br label %44, !llvm.loop !39

70:                                               ; preds = %55
  call void @llvm.lifetime.end.p0(i64 8, ptr %15) #10
  br label %71

71:                                               ; preds = %70, %40
  %72 = load ptr, ptr %10, align 8, !tbaa !28
  %73 = icmp ne ptr %72, null
  br i1 %73, label %74, label %79

74:                                               ; preds = %71
  %75 = load ptr, ptr %8, align 8, !tbaa !33
  %76 = getelementptr inbounds nuw %struct.H5Z_filter_info_t, ptr %75, i32 0, i32 4
  %77 = load i64, ptr %76, align 8, !tbaa !37
  %78 = load ptr, ptr %10, align 8, !tbaa !28
  store i64 %77, ptr %78, align 8, !tbaa !14
  br label %79

79:                                               ; preds = %74, %71
  %80 = load i64, ptr %12, align 8, !tbaa !14
  %81 = icmp ugt i64 %80, 0
  br i1 %81, label %82, label %133

82:                                               ; preds = %79
  %83 = load ptr, ptr %13, align 8, !tbaa !30
  %84 = icmp ne ptr %83, null
  br i1 %84, label %85, label %133

85:                                               ; preds = %82
  call void @llvm.lifetime.start.p0(i64 8, ptr %16) #10
  %86 = load ptr, ptr %8, align 8, !tbaa !33
  %87 = getelementptr inbounds nuw %struct.H5Z_filter_info_t, ptr %86, i32 0, i32 3
  %88 = load ptr, ptr %87, align 8, !tbaa !41
  store ptr %88, ptr %16, align 8, !tbaa !30
  %89 = load ptr, ptr %16, align 8, !tbaa !30
  %90 = icmp ne ptr %89, null
  br i1 %90, label %103, label %91

91:                                               ; preds = %85
  call void @llvm.lifetime.start.p0(i64 8, ptr %17) #10
  %92 = load ptr, ptr %8, align 8, !tbaa !33
  %93 = getelementptr inbounds nuw %struct.H5Z_filter_info_t, ptr %92, i32 0, i32 0
  %94 = load i32, ptr %93, align 8, !tbaa !34
  %95 = call i32 @H5Z_find(i1 noundef zeroext true, i32 noundef %94, ptr noundef %17)
  %96 = load ptr, ptr %17, align 8, !tbaa !42
  %97 = icmp ne ptr %96, null
  br i1 %97, label %98, label %102

98:                                               ; preds = %91
  %99 = load ptr, ptr %17, align 8, !tbaa !42
  %100 = getelementptr inbounds nuw %struct.H5Z_class2_t, ptr %99, i32 0, i32 4
  %101 = load ptr, ptr %100, align 8, !tbaa !44
  store ptr %101, ptr %16, align 8, !tbaa !30
  br label %102

102:                                              ; preds = %98, %91
  call void @llvm.lifetime.end.p0(i64 8, ptr %17) #10
  br label %103

103:                                              ; preds = %102, %85
  %104 = load ptr, ptr %16, align 8, !tbaa !30
  %105 = icmp ne ptr %104, null
  br i1 %105, label %106, label %115

106:                                              ; preds = %103
  %107 = load ptr, ptr %13, align 8, !tbaa !30
  %108 = load ptr, ptr %16, align 8, !tbaa !30
  %109 = load i64, ptr %12, align 8, !tbaa !14
  %110 = call ptr @strncpy(ptr noundef %107, ptr noundef %108, i64 noundef %109) #10
  %111 = load ptr, ptr %13, align 8, !tbaa !30
  %112 = load i64, ptr %12, align 8, !tbaa !14
  %113 = sub i64 %112, 1
  %114 = getelementptr inbounds nuw i8, ptr %111, i64 %113
  store i8 0, ptr %114, align 1, !tbaa !20
  br label %132

115:                                              ; preds = %103
  %116 = load ptr, ptr %8, align 8, !tbaa !33
  %117 = getelementptr inbounds nuw %struct.H5Z_filter_info_t, ptr %116, i32 0, i32 0
  %118 = load i32, ptr %117, align 8, !tbaa !34
  %119 = icmp slt i32 %118, 256
  br i1 %119, label %120, label %128

120:                                              ; preds = %115
  %121 = load ptr, ptr %13, align 8, !tbaa !30
  %122 = load i64, ptr %12, align 8, !tbaa !14
  %123 = call ptr @strncpy(ptr noundef %121, ptr noundef @.str.40, i64 noundef %122) #10
  %124 = load ptr, ptr %13, align 8, !tbaa !30
  %125 = load i64, ptr %12, align 8, !tbaa !14
  %126 = sub i64 %125, 1
  %127 = getelementptr inbounds nuw i8, ptr %124, i64 %126
  store i8 0, ptr %127, align 1, !tbaa !20
  br label %131

128:                                              ; preds = %115
  %129 = load ptr, ptr %13, align 8, !tbaa !30
  %130 = getelementptr inbounds i8, ptr %129, i64 0
  store i8 0, ptr %130, align 1, !tbaa !20
  br label %131

131:                                              ; preds = %128, %120
  br label %132

132:                                              ; preds = %131, %106
  call void @llvm.lifetime.end.p0(i64 8, ptr %16) #10
  br label %133

133:                                              ; preds = %132, %82, %79
  %134 = load ptr, ptr %14, align 8, !tbaa !18
  %135 = icmp ne ptr %134, null
  br i1 %135, label %136, label %142

136:                                              ; preds = %133
  %137 = load ptr, ptr %8, align 8, !tbaa !33
  %138 = getelementptr inbounds nuw %struct.H5Z_filter_info_t, ptr %137, i32 0, i32 0
  %139 = load i32, ptr %138, align 8, !tbaa !34
  %140 = load ptr, ptr %14, align 8, !tbaa !18
  %141 = call i32 @H5Z_get_filter_info(i32 noundef %139, ptr noundef %140)
  br label %142

142:                                              ; preds = %136, %133
  br label %143

143:                                              ; preds = %142, %24
  ret i32 0
}