; Function Attrs: nounwind uwtable
define noundef i32 @H5P__get_filter(ptr noundef readonly captures(none) %0, ptr noundef writeonly captures(address_is_null) %1, ptr noundef captures(address_is_null) %2, ptr noundef writeonly captures(address_is_null) %3, i64 noundef %4, ptr noundef %5, ptr noundef %6) local_unnamed_addr #0 {
  %8 = alloca ptr, align 8
  %9 = load i8, ptr @H5P_init_g, align 1, !tbaa !3, !range !7, !noundef !8
  %10 = trunc nuw i8 %9 to i1
  %11 = load i8, ptr @H5_libterm_g, align 1, !range !7
  %12 = trunc nuw i8 %11 to i1
  %13 = xor i1 %12, true
  %14 = select i1 %10, i1 true, i1 %13
  br i1 %14, label %15, label %60, !prof !9

15:                                               ; preds = %7
  %.not = icmp eq ptr %1, null
  br i1 %.not, label %19, label %16

16:                                               ; preds = %15
  %17 = getelementptr inbounds nuw i8, ptr %0, i64 4
  %18 = load i32, ptr %17, align 4, !tbaa !30
  store i32 %18, ptr %1, align 4, !tbaa !12
  br label %19

19:                                               ; preds = %16, %15
  %.not46 = icmp eq ptr %3, null
  br i1 %.not46, label %.critedge, label %.preheader

.preheader:                                       ; preds = %19
  %20 = getelementptr inbounds nuw i8, ptr %0, i64 32
  %21 = load i64, ptr %20, align 8, !tbaa !31
  %.not60 = icmp eq i64 %21, 0
  br i1 %.not60, label %.critedge, label %.lr.ph

.lr.ph:                                           ; preds = %.preheader
  %22 = load i64, ptr %2, align 8, !tbaa !10
  %23 = getelementptr inbounds nuw i8, ptr %0, i64 56
  br label %24

24:                                               ; preds = %.lr.ph, %25
  %.03659 = phi i64 [ 0, %.lr.ph ], [ %30, %25 ]
  %exitcond.not = icmp eq i64 %.03659, %22
  br i1 %exitcond.not, label %.critedge.thread, label %25

25:                                               ; preds = %24
  %26 = load ptr, ptr %23, align 8, !tbaa !32
  %27 = getelementptr inbounds nuw i32, ptr %26, i64 %.03659
  %28 = load i32, ptr %27, align 4, !tbaa !12
  %29 = getelementptr inbounds nuw i32, ptr %3, i64 %.03659
  store i32 %28, ptr %29, align 4, !tbaa !12
  %30 = add nuw i64 %.03659, 1
  %exitcond61.not = icmp eq i64 %30, %21
  br i1 %exitcond61.not, label %.critedge, label %24, !llvm.loop !33

.critedge:                                        ; preds = %25, %.preheader, %19
  %.not47 = icmp eq ptr %2, null
  br i1 %.not47, label %32, label %.critedge..critedge.thread_crit_edge

.critedge..critedge.thread_crit_edge:             ; preds = %.critedge
  %.phi.trans.insert = getelementptr inbounds nuw i8, ptr %0, i64 32
  %.pre = load i64, ptr %.phi.trans.insert, align 8, !tbaa !31
  br label %.critedge.thread

.critedge.thread:                                 ; preds = %24, %.critedge..critedge.thread_crit_edge
  %31 = phi i64 [ %.pre, %.critedge..critedge.thread_crit_edge ], [ %21, %24 ]
  store i64 %31, ptr %2, align 8, !tbaa !10
  br label %32

32:                                               ; preds = %.critedge.thread, %.critedge
  %33 = icmp ne i64 %4, 0
  %34 = icmp ne ptr %5, null
  %or.cond = and i1 %33, %34
  br i1 %or.cond, label %35, label %56

35:                                               ; preds = %32
  %36 = getelementptr inbounds nuw i8, ptr %0, i64 24
  %37 = load ptr, ptr %36, align 8, !tbaa !35
  %.not48 = icmp eq ptr %37, null
  br i1 %.not48, label %38, label %.thread

38:                                               ; preds = %35
  call void @llvm.lifetime.start.p0(i64 8, ptr nonnull %8) #10
  %39 = load i32, ptr %0, align 8, !tbaa !26
  %40 = call i32 @H5Z_find(i1 noundef zeroext true, i32 noundef %39, ptr noundef nonnull %8) #10
  %41 = load ptr, ptr %8, align 8, !tbaa !36
  %.not49 = icmp eq ptr %41, null
  br i1 %.not49, label %.thread56, label %42

.thread56:                                        ; preds = %38
  call void @llvm.lifetime.end.p0(i64 8, ptr nonnull %8) #10
  br label %48

42:                                               ; preds = %38
  %43 = getelementptr inbounds nuw i8, ptr %41, i64 16
  %44 = load ptr, ptr %43, align 8, !tbaa !38
  call void @llvm.lifetime.end.p0(i64 8, ptr nonnull %8) #10
  %.not50 = icmp eq ptr %44, null
  br i1 %.not50, label %48, label %.thread

.thread:                                          ; preds = %35, %42
  %.055 = phi ptr [ %44, %42 ], [ %37, %35 ]
  %45 = call ptr @strncpy(ptr noundef nonnull %5, ptr noundef nonnull %.055, i64 noundef %4) #10
  %46 = getelementptr i8, ptr %5, i64 %4
  %47 = getelementptr i8, ptr %46, i64 -1
  store i8 0, ptr %47, align 1, !tbaa !17
  br label %56

48:                                               ; preds = %.thread56, %42
  %49 = load i32, ptr %0, align 8, !tbaa !26
  %50 = icmp slt i32 %49, 256
  br i1 %50, label %51, label %55

51:                                               ; preds = %48
  %52 = call ptr @strncpy(ptr noundef nonnull %5, ptr noundef nonnull dereferenceable(23) @.str.40, i64 noundef %4) #10
  %53 = getelementptr i8, ptr %5, i64 %4
  %54 = getelementptr i8, ptr %53, i64 -1
  store i8 0, ptr %54, align 1, !tbaa !17
  br label %56

55:                                               ; preds = %48
  store i8 0, ptr %5, align 1, !tbaa !17
  br label %56

56:                                               ; preds = %.thread, %55, %51, %32
  %.not51 = icmp eq ptr %6, null
  br i1 %.not51, label %60, label %57

57:                                               ; preds = %56
  %58 = load i32, ptr %0, align 8, !tbaa !26
  %59 = call i32 @H5Z_get_filter_info(i32 noundef %58, ptr noundef nonnull %6) #10
  br label %60

60:                                               ; preds = %56, %57, %7
  ret i32 0
}